target datalayout = "e-m:e-p270:32:32-p271:32:32-p272:64:64-i64:64-i128:128-f80:128-n8:16:32:64-S128"
target triple = "x86_64-pc-linux-gnu"

@.str = private unnamed_addr constant [129 x i8] c"generated/home/dtcxzyw/WorkSpace/Projects/compilers/llvm-opt-benchmark/bench/gromacs/gromacs/src/gromacs/utility/cstringutil.cpp\00", align 1
@.str.3 = private unnamed_addr constant [5 x i8] c"dest\00", align 1

; Function Attrs: inlinehint mustprogress uwtable
define internal void @_ZL13gmx_snew_implIcEvPKcS1_iRPT_m(ptr noundef %0, ptr noundef %1, i32 noundef %2, ptr noundef nonnull align 8 dereferenceable(8) %3, i64 noundef %4) #9 {
  %6 = alloca ptr, align 8
  %7 = alloca ptr, align 8
  %8 = alloca i32, align 4
  %9 = alloca ptr, align 8
  %10 = alloca i64, align 8
  store ptr %0, ptr %6, align 8, !tbaa !4
  store ptr %1, ptr %7, align 8, !tbaa !4
  store i32 %2, ptr %8, align 4, !tbaa !9
  store ptr %3, ptr %9, align 8, !tbaa !48
  store i64 %4, ptr %10, align 8, !tbaa !21
  %11 = load ptr, ptr %6, align 8, !tbaa !4
  %12 = load ptr, ptr %7, align 8, !tbaa !4
  %13 = load i32, ptr %8, align 4, !tbaa !9
  %14 = load i64, ptr %10, align 8, !tbaa !21
  %15 = call noundef ptr @_Z11save_callocPKcS0_imm(ptr noundef %11, ptr noundef %12, i32 noundef %13, i64 noundef %14, i64 noundef 1)
  %16 = load ptr, ptr %9, align 8, !tbaa !48
  store ptr %15, ptr %16, align 8, !tbaa !4
  ret void
}

; Function Attrs: mustprogress uwtable
define noundef ptr @_Z11gmx_strndupPKci(ptr noundef %0, i32 noundef %1) #0 {
  %3 = alloca ptr, align 8
  %4 = alloca i32, align 4
  %5 = alloca ptr, align 8
  %6 = alloca i32, align 4
  store ptr %0, ptr %3, align 8, !tbaa !4
  store i32 %1, ptr %4, align 4, !tbaa !9
  call void @llvm.lifetime.start.p0(i64 8, ptr %5) #13
  store ptr null, ptr %5, align 8, !tbaa !4
  call void @llvm.lifetime.start.p0(i64 4, ptr %6) #13
  %7 = load ptr, ptr %3, align 8, !tbaa !4
  %8 = call i64 @strlen(ptr noundef %7) #14
  %9 = trunc i64 %8 to i32
  store i32 %9, ptr %6, align 4, !tbaa !9
  %10 = load i32, ptr %6, align 4, !tbaa !9
  %11 = load i32, ptr %4, align 4, !tbaa !9
  %12 = icmp sgt i32 %10, %11
  br i1 %12, label %13, label %15

13:                                               ; preds = %2
  %14 = load i32, ptr %4, align 4, !tbaa !9
  store i32 %14, ptr %6, align 4, !tbaa !9
  br label %15

15:                                               ; preds = %13, %2
  %16 = load i32, ptr %6, align 4, !tbaa !9
  %17 = add nsw i32 %16, 1
  %18 = sext i32 %17 to i64
  call void @_ZL13gmx_snew_implIcEvPKcS1_iRPT_m(ptr noundef @.str.3, ptr noundef @.str, i32 noundef 289, ptr noundef nonnull align 8 dereferenceable(8) %5, i64 noundef %18)
  %19 = load ptr, ptr %5, align 8, !tbaa !4
  %20 = load ptr, ptr %3, align 8, !tbaa !4
  %21 = load i32, ptr %6, align 4, !tbaa !9
  %22 = sext i32 %21 to i64
  %23 = call ptr @strncpy(ptr noundef %19, ptr noundef %20, i64 noundef %22) #13
  %24 = load ptr, ptr %5, align 8, !tbaa !4
  %25 = load i32, ptr %6, align 4, !tbaa !9
  %26 = sext i32 %25 to i64
  %27 = getelementptr inbounds i8, ptr %24, i64 %26
  store i8 0, ptr %27, align 1, !tbaa !11
  %28 = load ptr, ptr %5, align 8, !tbaa !4
  call void @llvm.lifetime.end.p0(i64 4, ptr %6) #13
  call void @llvm.lifetime.end.p0(i64 8, ptr %5) #13
  ret ptr %28
}