; Function Attrs: mustprogress uwtable
define noundef ptr @_Z11gmx_strndupPKci(ptr noundef readonly captures(none) %0, i32 noundef %1) local_unnamed_addr #3 {
  %3 = tail call i64 @strlen(ptr noundef nonnull dereferenceable(1) %0) #24
  %4 = trunc i64 %3 to i32
  %spec.select = tail call i32 @llvm.smin.i32(i32 %1, i32 %4)
  %5 = add nsw i32 %spec.select, 1
  %6 = sext i32 %5 to i64
  %7 = tail call noundef ptr @_Z11save_callocPKcS0_imm(ptr noundef nonnull @.str.3, ptr noundef nonnull @.str, i32 noundef 289, i64 noundef %6, i64 noundef 1)
  %8 = sext i32 %spec.select to i64
  %9 = tail call ptr @strncpy(ptr noundef %7, ptr noundef nonnull %0, i64 noundef %8) #25
  %10 = getelementptr inbounds i8, ptr %7, i64 %8
  store i8 0, ptr %10, align 1, !tbaa !4
  ret ptr %7
}